target datalayout = "e-m:e-p270:32:32-p271:32:32-p272:64:64-i64:64-i128:128-f80:128-n8:16:32:64-S128"
target triple = "x86_64-pc-linux-gnu"

%struct.FormatEntry = type { i8 }
%struct.SwsFormat = type { i32, i32, i32, i32, i32, i32, i32, ptr, %struct.SwsColor }
%struct.SwsColor = type { i32, i32, %struct.AVPrimaryCoefficients, %struct.AVRational, %struct.AVRational, %struct.AVRational, %struct.AVRational }
%struct.AVPrimaryCoefficients = type { %struct.AVCIExy, %struct.AVCIExy, %struct.AVCIExy }
%struct.AVCIExy = type { %struct.AVRational, %struct.AVRational }
%struct.AVRational = type { i32, i32 }

; Function Attrs: nounwind uwtable
define i32 @sws_isSupportedInput(i32 noundef %0) #0 {
  %2 = alloca i32, align 4
  store i32 %0, ptr %2, align 4, !tbaa !4
  %3 = load i32, ptr %2, align 4, !tbaa !4
  %4 = zext i32 %3 to i64
  %5 = icmp ult i64 %4, 256
  br i1 %5, label %6, label %13

6:                                                ; preds = %1
  %7 = load i32, ptr %2, align 4, !tbaa !4
  %8 = sext i32 %7 to i64
  %9 = getelementptr inbounds [256 x %struct.FormatEntry], ptr @format_entries, i64 0, i64 %8
  %10 = load i8, ptr %9, align 1
  %11 = and i8 %10, 1
  %12 = zext i8 %11 to i32
  br label %14

13:                                               ; preds = %1
  br label %14

14:                                               ; preds = %13, %6
  %15 = phi i32 [ %12, %6 ], [ 0, %13 ]
  ret i32 %15
}

; Function Attrs: nounwind uwtable
define i32 @sws_isSupportedOutput(i32 noundef %0) #0 {
  %2 = alloca i32, align 4
  store i32 %0, ptr %2, align 4, !tbaa !4
  %3 = load i32, ptr %2, align 4, !tbaa !4
  %4 = zext i32 %3 to i64
  %5 = icmp ult i64 %4, 256
  br i1 %5, label %6, label %14

6:                                                ; preds = %1
  %7 = load i32, ptr %2, align 4, !tbaa !4
  %8 = sext i32 %7 to i64
  %9 = getelementptr inbounds [256 x %struct.FormatEntry], ptr @format_entries, i64 0, i64 %8
  %10 = load i8, ptr %9, align 1
  %11 = lshr i8 %10, 1
  %12 = and i8 %11, 1
  %13 = zext i8 %12 to i32
  br label %15

14:                                               ; preds = %1
  br label %15

15:                                               ; preds = %14, %6
  %16 = phi i32 [ %13, %6 ], [ 0, %14 ]
  ret i32 %16
}

; Function Attrs: nounwind uwtable
define internal i32 @test_loc(i32 noundef %0) #0 {
  %2 = alloca i32, align 4
  store i32 %0, ptr %2, align 4, !tbaa !4
  %3 = load i32, ptr %2, align 4, !tbaa !4
  %4 = icmp ult i32 %3, 7
  %5 = zext i1 %4 to i32
  ret i32 %5
}

; Function Attrs: nounwind uwtable
define internal i32 @test_range(i32 noundef %0) #0 {
  %2 = alloca i32, align 4
  store i32 %0, ptr %2, align 4, !tbaa !4
  %3 = load i32, ptr %2, align 4, !tbaa !4
  %4 = icmp ult i32 %3, 3
  %5 = zext i1 %4 to i32
  ret i32 %5
}

; Function Attrs: nounwind uwtable
define i32 @sws_test_transfer(i32 noundef %0, i32 noundef %1) #0 {
  %3 = alloca i32, align 4
  %4 = alloca i32, align 4
  %5 = alloca ptr, align 8
  store i32 %0, ptr %3, align 4, !tbaa !4
  store i32 %1, ptr %4, align 4, !tbaa !4
  call void @llvm.lifetime.start.p0(i64 8, ptr %5) #8
  %6 = load i32, ptr %4, align 4, !tbaa !4
  %7 = icmp ne i32 %6, 0
  br i1 %7, label %8, label %11

8:                                                ; preds = %2
  %9 = load i32, ptr %3, align 4, !tbaa !4
  %10 = call ptr @av_csp_itu_eotf_inv(i32 noundef %9)
  br label %14

11:                                               ; preds = %2
  %12 = load i32, ptr %3, align 4, !tbaa !4
  %13 = call ptr @av_csp_itu_eotf(i32 noundef %12)
  br label %14

14:                                               ; preds = %11, %8
  %15 = phi ptr [ %10, %8 ], [ %13, %11 ]
  store ptr %15, ptr %5, align 8, !tbaa !87
  %16 = load i32, ptr %3, align 4, !tbaa !4
  %17 = icmp eq i32 %16, 2
  br i1 %17, label %21, label %18

18:                                               ; preds = %14
  %19 = load ptr, ptr %5, align 8, !tbaa !87
  %20 = icmp ne ptr %19, null
  br label %21

21:                                               ; preds = %18, %14
  %22 = phi i1 [ true, %14 ], [ %20, %18 ]
  %23 = zext i1 %22 to i32
  call void @llvm.lifetime.end.p0(i64 8, ptr %5) #8
  ret i32 %23
}

; Function Attrs: nounwind uwtable
define i32 @sws_test_primaries(i32 noundef %0, i32 noundef %1) #0 {
  %3 = alloca i32, align 4
  %4 = alloca i32, align 4
  store i32 %0, ptr %3, align 4, !tbaa !4
  store i32 %1, ptr %4, align 4, !tbaa !4
  %5 = load i32, ptr %3, align 4, !tbaa !4
  %6 = icmp ugt i32 %5, 0
  br i1 %6, label %7, label %13

7:                                                ; preds = %2
  %8 = load i32, ptr %3, align 4, !tbaa !4
  %9 = icmp ult i32 %8, 23
  br i1 %9, label %10, label %13

10:                                               ; preds = %7
  %11 = load i32, ptr %3, align 4, !tbaa !4
  %12 = icmp ne i32 %11, 3
  br label %13

13:                                               ; preds = %10, %7, %2
  %14 = phi i1 [ false, %7 ], [ false, %2 ], [ %12, %10 ]
  %15 = zext i1 %14 to i32
  ret i32 %15
}

; Function Attrs: nounwind uwtable
define i32 @sws_test_colorspace(i32 noundef %0, i32 noundef %1) #0 {
  %3 = alloca i32, align 4
  %4 = alloca i32, align 4
  %5 = alloca i32, align 4
  store i32 %0, ptr %4, align 4, !tbaa !4
  store i32 %1, ptr %5, align 4, !tbaa !4
  %6 = load i32, ptr %4, align 4, !tbaa !4
  switch i32 %6, label %8 [
    i32 2, label %7
    i32 0, label %7
    i32 1, label %7
    i32 5, label %7
    i32 6, label %7
    i32 4, label %7
    i32 7, label %7
    i32 9, label %7
  ]

7:                                                ; preds = %2, %2, %2, %2, %2, %2, %2, %2
  store i32 1, ptr %3, align 4
  br label %9

8:                                                ; preds = %2
  store i32 0, ptr %3, align 4
  br label %9

9:                                                ; preds = %8, %7
  %10 = load i32, ptr %3, align 4
  ret i32 %10
}

; Function Attrs: nounwind uwtable
define i32 @sws_test_format(i32 noundef %0, i32 noundef %1) #0 {
  %3 = alloca i32, align 4
  %4 = alloca i32, align 4
  store i32 %0, ptr %3, align 4, !tbaa !4
  store i32 %1, ptr %4, align 4, !tbaa !4
  %5 = load i32, ptr %4, align 4, !tbaa !4
  %6 = icmp ne i32 %5, 0
  br i1 %6, label %7, label %10

7:                                                ; preds = %2
  %8 = load i32, ptr %3, align 4, !tbaa !4
  %9 = call i32 @sws_isSupportedOutput(i32 noundef %8)
  br label %13

10:                                               ; preds = %2
  %11 = load i32, ptr %3, align 4, !tbaa !4
  %12 = call i32 @sws_isSupportedInput(i32 noundef %11)
  br label %13

13:                                               ; preds = %10, %7
  %14 = phi i32 [ %9, %7 ], [ %12, %10 ]
  ret i32 %14
}

; Function Attrs: nounwind uwtable
define i32 @ff_test_fmt(ptr noundef %0, i32 noundef %1) #0 {
  %3 = alloca ptr, align 8
  %4 = alloca i32, align 4
  store ptr %0, ptr %3, align 8, !tbaa !88
  store i32 %1, ptr %4, align 4, !tbaa !4
  %5 = load ptr, ptr %3, align 8, !tbaa !88
  %6 = getelementptr inbounds nuw %struct.SwsFormat, ptr %5, i32 0, i32 0
  %7 = load i32, ptr %6, align 8, !tbaa !25
  %8 = icmp sgt i32 %7, 0
  br i1 %8, label %9, label %56

9:                                                ; preds = %2
  %10 = load ptr, ptr %3, align 8, !tbaa !88
  %11 = getelementptr inbounds nuw %struct.SwsFormat, ptr %10, i32 0, i32 1
  %12 = load i32, ptr %11, align 4, !tbaa !31
  %13 = icmp sgt i32 %12, 0
  br i1 %13, label %14, label %56

14:                                               ; preds = %9
  %15 = load ptr, ptr %3, align 8, !tbaa !88
  %16 = getelementptr inbounds nuw %struct.SwsFormat, ptr %15, i32 0, i32 3
  %17 = load i32, ptr %16, align 4, !tbaa !33
  %18 = load i32, ptr %4, align 4, !tbaa !4
  %19 = call i32 @sws_test_format(i32 noundef %17, i32 noundef %18)
  %20 = icmp ne i32 %19, 0
  br i1 %20, label %21, label %56

21:                                               ; preds = %14
  %22 = load ptr, ptr %3, align 8, !tbaa !88
  %23 = getelementptr inbounds nuw %struct.SwsFormat, ptr %22, i32 0, i32 5
  %24 = load i32, ptr %23, align 4, !tbaa !37
  %25 = load i32, ptr %4, align 4, !tbaa !4
  %26 = call i32 @sws_test_colorspace(i32 noundef %24, i32 noundef %25)
  %27 = icmp ne i32 %26, 0
  br i1 %27, label %28, label %56

28:                                               ; preds = %21
  %29 = load ptr, ptr %3, align 8, !tbaa !88
  %30 = getelementptr inbounds nuw %struct.SwsFormat, ptr %29, i32 0, i32 8
  %31 = getelementptr inbounds nuw %struct.SwsColor, ptr %30, i32 0, i32 0
  %32 = load i32, ptr %31, align 8, !tbaa !50
  %33 = load i32, ptr %4, align 4, !tbaa !4
  %34 = call i32 @sws_test_primaries(i32 noundef %32, i32 noundef %33)
  %35 = icmp ne i32 %34, 0
  br i1 %35, label %36, label %56

36:                                               ; preds = %28
  %37 = load ptr, ptr %3, align 8, !tbaa !88
  %38 = getelementptr inbounds nuw %struct.SwsFormat, ptr %37, i32 0, i32 8
  %39 = getelementptr inbounds nuw %struct.SwsColor, ptr %38, i32 0, i32 1
  %40 = load i32, ptr %39, align 4, !tbaa !55
  %41 = load i32, ptr %4, align 4, !tbaa !4
  %42 = call i32 @sws_test_transfer(i32 noundef %40, i32 noundef %41)
  %43 = icmp ne i32 %42, 0
  br i1 %43, label %44, label %56

44:                                               ; preds = %36
  %45 = load ptr, ptr %3, align 8, !tbaa !88
  %46 = getelementptr inbounds nuw %struct.SwsFormat, ptr %45, i32 0, i32 4
  %47 = load i32, ptr %46, align 8, !tbaa !35
  %48 = call i32 @test_range(i32 noundef %47)
  %49 = icmp ne i32 %48, 0
  br i1 %49, label %50, label %56

50:                                               ; preds = %44
  %51 = load ptr, ptr %3, align 8, !tbaa !88
  %52 = getelementptr inbounds nuw %struct.SwsFormat, ptr %51, i32 0, i32 6
  %53 = load i32, ptr %52, align 8, !tbaa !39
  %54 = call i32 @test_loc(i32 noundef %53)
  %55 = icmp ne i32 %54, 0
  br label %56

56:                                               ; preds = %50, %44, %36, %28, %21, %14, %9, %2
  %57 = phi i1 [ false, %44 ], [ false, %36 ], [ false, %28 ], [ false, %21 ], [ false, %14 ], [ false, %9 ], [ false, %2 ], [ %55, %50 ]
  %58 = zext i1 %57 to i32
  ret i32 %58
}

; Function Attrs: nounwind uwtable
define i32 @sws_test_frame(ptr noundef %0, i32 noundef %1) #0 {
  %3 = alloca i32, align 4
  %4 = alloca ptr, align 8
  %5 = alloca i32, align 4
  %6 = alloca i32, align 4
  %7 = alloca i32, align 4
  %8 = alloca %struct.SwsFormat, align 8
  store ptr %0, ptr %4, align 8, !tbaa !8
  store i32 %1, ptr %5, align 4, !tbaa !4
  call void @llvm.lifetime.start.p0(i64 4, ptr %6) #8
  store i32 0, ptr %6, align 4, !tbaa !4
  br label %9

9:                                                ; preds = %29, %2
  %10 = load i32, ptr %6, align 4, !tbaa !4
  %11 = icmp slt i32 %10, 2
  br i1 %11, label %13, label %12

12:                                               ; preds = %9
  store i32 2, ptr %7, align 4
  br label %32

13:                                               ; preds = %9
  call void @llvm.lifetime.start.p0(i64 128, ptr %8) #8
  %14 = load ptr, ptr %4, align 8, !tbaa !8
  %15 = load i32, ptr %6, align 4, !tbaa !4
  call void @ff_fmt_from_frame(ptr dead_on_unwind writable sret(%struct.SwsFormat) align 8 %8, ptr noundef %14, i32 noundef %15)
  %16 = load i32, ptr %5, align 4, !tbaa !4
  %17 = call i32 @ff_test_fmt(ptr noundef %8, i32 noundef %16)
  %18 = icmp ne i32 %17, 0
  br i1 %18, label %20, label %19

19:                                               ; preds = %13
  store i32 0, ptr %3, align 4
  store i32 1, ptr %7, align 4
  br label %26

20:                                               ; preds = %13
  %21 = getelementptr inbounds nuw %struct.SwsFormat, ptr %8, i32 0, i32 2
  %22 = load i32, ptr %21, align 8, !tbaa !32
  %23 = icmp ne i32 %22, 0
  br i1 %23, label %25, label %24

24:                                               ; preds = %20
  store i32 2, ptr %7, align 4
  br label %26

25:                                               ; preds = %20
  store i32 0, ptr %7, align 4
  br label %26

26:                                               ; preds = %25, %24, %19
  call void @llvm.lifetime.end.p0(i64 128, ptr %8) #8
  %27 = load i32, ptr %7, align 4
  switch i32 %27, label %32 [
    i32 0, label %28
  ]

28:                                               ; preds = %26
  br label %29

29:                                               ; preds = %28
  %30 = load i32, ptr %6, align 4, !tbaa !4
  %31 = add nsw i32 %30, 1
  store i32 %31, ptr %6, align 4, !tbaa !4
  br label %9, !llvm.loop !90

32:                                               ; preds = %26, %12
  call void @llvm.lifetime.end.p0(i64 4, ptr %6) #8
  %33 = load i32, ptr %7, align 4
  switch i32 %33, label %37 [
    i32 2, label %34
    i32 1, label %35
  ]

34:                                               ; preds = %32
  store i32 1, ptr %3, align 4
  br label %35

35:                                               ; preds = %34, %32
  %36 = load i32, ptr %3, align 4
  ret i32 %36

37:                                               ; preds = %32
  unreachable
}