; Function Attrs: nounwind uwtable
define range(i32 0, 2) i32 @sws_test_frame(ptr noundef %0, i32 noundef %1) local_unnamed_addr #1 {
  %3 = alloca %struct.SwsFormat, align 8
  %4 = getelementptr inbounds nuw i8, ptr %3, i64 4
  %5 = getelementptr inbounds nuw i8, ptr %3, i64 12
  %.not.i.i = icmp eq i32 %1, 0
  %6 = getelementptr inbounds nuw i8, ptr %3, i64 20
  %7 = getelementptr inbounds nuw i8, ptr %3, i64 40
  %8 = getelementptr inbounds nuw i8, ptr %3, i64 44
  %9 = getelementptr inbounds nuw i8, ptr %3, i64 16
  %10 = getelementptr inbounds nuw i8, ptr %3, i64 24
  %11 = getelementptr inbounds nuw i8, ptr %3, i64 8
  br i1 %.not.i.i, label %.split.us, label %.split

.split.us:                                        ; preds = %2, %36
  %12 = phi i1 [ false, %36 ], [ true, %2 ]
  %.0723.us = phi i32 [ 1, %36 ], [ 0, %2 ]
  call void @llvm.lifetime.start.p0(i64 128, ptr nonnull %3) #8
  call void @ff_fmt_from_frame(ptr dead_on_unwind nonnull writable sret(%struct.SwsFormat) align 8 %3, ptr noundef %0, i32 noundef %.0723.us)
  %13 = load i32, ptr %3, align 8, !tbaa !20
  %14 = icmp sgt i32 %13, 0
  %15 = load i32, ptr %4, align 4
  %16 = icmp sgt i32 %15, 0
  %or.cond.us = select i1 %14, i1 %16, i1 false
  br i1 %or.cond.us, label %17, label %.thread

17:                                               ; preds = %.split.us
  %18 = load i32, ptr %5, align 4, !tbaa !29
  %19 = icmp ult i32 %18, 256
  br i1 %19, label %sws_test_format.exit.i.us, label %.thread

sws_test_format.exit.i.us:                        ; preds = %17
  %20 = zext nneg i32 %18 to i64
  %21 = getelementptr inbounds nuw [256 x %struct.FormatEntry], ptr @format_entries, i64 0, i64 %20
  %22 = load i8, ptr %21, align 1
  %.shrunk.i.i.us = and i8 %22, 1
  %.not.i.us = icmp eq i8 %.shrunk.i.i.us, 0
  br i1 %.not.i.us, label %.thread, label %23

23:                                               ; preds = %sws_test_format.exit.i.us
  %24 = load i32, ptr %6, align 4, !tbaa !33
  switch i32 %24, label %.thread [
    i32 2, label %sws_test_colorspace.exit.i.us
    i32 0, label %sws_test_colorspace.exit.i.us
    i32 1, label %sws_test_colorspace.exit.i.us
    i32 5, label %sws_test_colorspace.exit.i.us
    i32 6, label %sws_test_colorspace.exit.i.us
    i32 4, label %sws_test_colorspace.exit.i.us
    i32 7, label %sws_test_colorspace.exit.i.us
    i32 9, label %sws_test_colorspace.exit.i.us
  ]

sws_test_colorspace.exit.i.us:                    ; preds = %23, %23, %23, %23, %23, %23, %23, %23
  %25 = load i32, ptr %7, align 8, !tbaa !46
  %26 = add i32 %25, -23
  %or.cond.i.i.us = icmp ult i32 %26, -22
  %27 = icmp eq i32 %25, 3
  %narrow.i.not.i.us = or i1 %27, %or.cond.i.i.us
  br i1 %narrow.i.not.i.us, label %.thread, label %sws_test_transfer.exit.i.us

sws_test_transfer.exit.i.us:                      ; preds = %sws_test_colorspace.exit.i.us
  %28 = load i32, ptr %8, align 4, !tbaa !64
  %29 = tail call ptr @av_csp_itu_eotf(i32 noundef %28) #8
  %30 = icmp ne i32 %28, 2
  %31 = icmp eq ptr %29, null
  %.not23.i.us = select i1 %30, i1 %31, i1 false
  %32 = load i32, ptr %9, align 8
  %33 = icmp ugt i32 %32, 2
  %or.cond19.us = select i1 %.not23.i.us, i1 true, i1 %33
  %34 = load i32, ptr %10, align 8
  %35 = icmp ugt i32 %34, 6
  %or.cond22.us = select i1 %or.cond19.us, i1 true, i1 %35
  br i1 %or.cond22.us, label %.thread, label %36

36:                                               ; preds = %sws_test_transfer.exit.i.us
  %37 = load i32, ptr %11, align 8, !tbaa !28
  %.not10.not.us = icmp ne i32 %37, 0
  call void @llvm.lifetime.end.p0(i64 128, ptr nonnull %3) #8
  %or.cond28 = and i1 %.not10.not.us, %12
  br i1 %or.cond28, label %.split.us, label %.loopexit, !llvm.loop !65

.split:                                           ; preds = %2, %63
  %38 = phi i1 [ false, %63 ], [ true, %2 ]
  %.0723 = phi i32 [ 1, %63 ], [ 0, %2 ]
  call void @llvm.lifetime.start.p0(i64 128, ptr nonnull %3) #8
  call void @ff_fmt_from_frame(ptr dead_on_unwind nonnull writable sret(%struct.SwsFormat) align 8 %3, ptr noundef %0, i32 noundef %.0723)
  %39 = load i32, ptr %3, align 8, !tbaa !20
  %40 = icmp sgt i32 %39, 0
  %41 = load i32, ptr %4, align 4
  %42 = icmp sgt i32 %41, 0
  %or.cond = select i1 %40, i1 %42, i1 false
  br i1 %or.cond, label %43, label %.thread

43:                                               ; preds = %.split
  %44 = load i32, ptr %5, align 4, !tbaa !29
  %45 = icmp ult i32 %44, 256
  br i1 %45, label %sws_test_format.exit.i, label %.thread

sws_test_format.exit.i:                           ; preds = %43
  %46 = zext nneg i32 %44 to i64
  %47 = getelementptr inbounds nuw [256 x %struct.FormatEntry], ptr @format_entries, i64 0, i64 %46
  %48 = load i8, ptr %47, align 1
  %49 = and i8 %48, 2
  %.not.i = icmp eq i8 %49, 0
  br i1 %.not.i, label %.thread, label %50

50:                                               ; preds = %sws_test_format.exit.i
  %51 = load i32, ptr %6, align 4, !tbaa !33
  switch i32 %51, label %.thread [
    i32 2, label %sws_test_colorspace.exit.i
    i32 0, label %sws_test_colorspace.exit.i
    i32 1, label %sws_test_colorspace.exit.i
    i32 5, label %sws_test_colorspace.exit.i
    i32 6, label %sws_test_colorspace.exit.i
    i32 4, label %sws_test_colorspace.exit.i
    i32 7, label %sws_test_colorspace.exit.i
    i32 9, label %sws_test_colorspace.exit.i
  ]

sws_test_colorspace.exit.i:                       ; preds = %50, %50, %50, %50, %50, %50, %50, %50
  %52 = load i32, ptr %7, align 8, !tbaa !46
  %53 = add i32 %52, -23
  %or.cond.i.i = icmp ult i32 %53, -22
  %54 = icmp eq i32 %52, 3
  %narrow.i.not.i = or i1 %54, %or.cond.i.i
  br i1 %narrow.i.not.i, label %.thread, label %sws_test_transfer.exit.i

sws_test_transfer.exit.i:                         ; preds = %sws_test_colorspace.exit.i
  %55 = load i32, ptr %8, align 4, !tbaa !64
  %56 = tail call ptr @av_csp_itu_eotf_inv(i32 noundef %55) #8
  %57 = icmp ne i32 %55, 2
  %58 = icmp eq ptr %56, null
  %.not23.i = select i1 %57, i1 %58, i1 false
  %59 = load i32, ptr %9, align 8
  %60 = icmp ugt i32 %59, 2
  %or.cond19 = select i1 %.not23.i, i1 true, i1 %60
  %61 = load i32, ptr %10, align 8
  %62 = icmp ugt i32 %61, 6
  %or.cond22 = select i1 %or.cond19, i1 true, i1 %62
  br i1 %or.cond22, label %.thread, label %63

.thread:                                          ; preds = %50, %43, %.split, %sws_test_format.exit.i, %sws_test_colorspace.exit.i, %sws_test_transfer.exit.i, %.split.us, %17, %sws_test_format.exit.i.us, %23, %sws_test_colorspace.exit.i.us, %sws_test_transfer.exit.i.us
  call void @llvm.lifetime.end.p0(i64 128, ptr nonnull %3) #8
  br label %.loopexit

63:                                               ; preds = %sws_test_transfer.exit.i
  %64 = load i32, ptr %11, align 8, !tbaa !28
  %.not10.not = icmp ne i32 %64, 0
  call void @llvm.lifetime.end.p0(i64 128, ptr nonnull %3) #8
  %or.cond29 = and i1 %.not10.not, %38
  br i1 %or.cond29, label %.split, label %.loopexit, !llvm.loop !65

.loopexit:                                        ; preds = %63, %36, %.thread
  %.0 = phi i32 [ 0, %.thread ], [ 1, %36 ], [ 1, %63 ]
  ret i32 %.0
}